(dp0
S'data_points'
p1
cnumpy.core.multiarray
_reconstruct
p2
(cnumpy
ndarray
p3
(I0
tp4
S'b'
p5
tp6
Rp7
(I1
(I1
I2
tp8
cnumpy
dtype
p9
(S'i8'
p10
I0
I1
tp11
Rp12
(I3
S'<'
p13
NNNI-1
I-1
I0
tp14
bI00
S'\n\x00\x00\x00\x00\x00\x00\x00\xc5O\n\x00\x00\x00\x00\x00'
p15
tp16
bsS'column_names'
p17
(lp18
S'history_fetchCount'
p19
aS'count'
p20
as.